; Function Attrs: mustprogress nounwind uwtable
define hidden noundef ptr @_ZN13LoadRangeNode5IdealEP8PhaseGVNb(ptr noundef nonnull align 8 dereferenceable(72) %0, ptr noundef %1, i1 noundef zeroext %2) unnamed_addr #1 align 2 {
  %4 = alloca i64, align 8
  %5 = tail call noundef ptr @_ZN7MemNode12Ideal_commonEP8PhaseGVNb(ptr noundef nonnull align 8 dereferenceable(56) %0, ptr noundef %1, i1 noundef zeroext %2)
  %.not = icmp eq ptr %5, null
  br i1 %.not, label %9, label %6

6:                                                ; preds = %3
  %7 = icmp eq ptr %5, inttoptr (i64 -1 to ptr)
  %8 = select i1 %7, ptr null, ptr %5
  br label %50

9:                                                ; preds = %3
  %10 = getelementptr inbounds i8, ptr %0, i64 8
  %11 = load ptr, ptr %10, align 8
  %12 = getelementptr inbounds i8, ptr %11, i64 16
  %13 = load ptr, ptr %12, align 8
  store i64 0, ptr %4, align 8
  %14 = call noundef ptr @_ZN8AddPNode21Ideal_base_and_offsetEP4NodeP11PhaseValuesRl(ptr noundef %13, ptr noundef %1, ptr noundef nonnull align 8 dereferenceable(8) %4) #13
  %15 = icmp eq ptr %14, null
  br i1 %15, label %50, label %16

16:                                               ; preds = %9
  %17 = getelementptr inbounds i8, ptr %1, i64 40
  %18 = load ptr, ptr %17, align 8
  %19 = getelementptr inbounds i8, ptr %13, i64 40
  %20 = load i32, ptr %19, align 8
  %21 = getelementptr inbounds i8, ptr %18, i64 16
  %22 = load ptr, ptr %21, align 8
  %23 = zext i32 %20 to i64
  %24 = getelementptr inbounds ptr, ptr %22, i64 %23
  %25 = load ptr, ptr %24, align 8
  %26 = getelementptr inbounds i8, ptr %25, i64 16
  %27 = load i32, ptr %26, align 8
  %28 = icmp ne i32 %27, 22
  %29 = icmp eq ptr %25, null
  %30 = or i1 %29, %28
  br i1 %30, label %50, label %31

31:                                               ; preds = %16
  %32 = load i64, ptr %4, align 8
  %33 = load i8, ptr @UseCompressedClassPointers, align 1
  %34 = trunc i8 %33 to i1
  %35 = select i1 %34, i64 12, i64 16
  %36 = icmp eq i64 %32, %35
  br i1 %36, label %37, label %_ZN17AllocateArrayNode22Ideal_array_allocationEP4Node.exit.thread

37:                                               ; preds = %31
  %38 = call noundef ptr @_ZN12AllocateNode16Ideal_allocationEP4Node(ptr noundef nonnull %14) #13
  %39 = icmp eq ptr %38, null
  br i1 %39, label %_ZN17AllocateArrayNode22Ideal_array_allocationEP4Node.exit.thread, label %40

40:                                               ; preds = %37
  %41 = getelementptr inbounds i8, ptr %38, i64 44
  %42 = load i32, ptr %41, align 4
  %43 = and i32 %42, 127
  %44 = icmp eq i32 %43, 103
  br i1 %44, label %_ZN17AllocateArrayNode22Ideal_array_allocationEP4Node.exit, label %_ZN17AllocateArrayNode22Ideal_array_allocationEP4Node.exit.thread

_ZN17AllocateArrayNode22Ideal_array_allocationEP4Node.exit: ; preds = %40
  %45 = getelementptr inbounds i8, ptr %38, i64 8
  %46 = load ptr, ptr %45, align 8
  %47 = getelementptr inbounds i8, ptr %46, i64 64
  %48 = load ptr, ptr %47, align 8
  %49 = call noundef ptr @_ZN17AllocateArrayNode17make_ideal_lengthEPK10TypeOopPtrP11PhaseValuesb(ptr noundef nonnull align 8 dereferenceable(131) %38, ptr noundef nonnull %25, ptr noundef nonnull %1, i1 noundef zeroext true) #13
  %.not27 = icmp eq ptr %48, %49
  br i1 %.not27, label %_ZN17AllocateArrayNode22Ideal_array_allocationEP4Node.exit.thread, label %50

_ZN17AllocateArrayNode22Ideal_array_allocationEP4Node.exit.thread: ; preds = %40, %37, %_ZN17AllocateArrayNode22Ideal_array_allocationEP4Node.exit, %31
  br label %50

50:                                               ; preds = %_ZN17AllocateArrayNode22Ideal_array_allocationEP4Node.exit, %16, %9, %_ZN17AllocateArrayNode22Ideal_array_allocationEP4Node.exit.thread, %6
  %.0 = phi ptr [ %8, %6 ], [ null, %_ZN17AllocateArrayNode22Ideal_array_allocationEP4Node.exit.thread ], [ null, %9 ], [ null, %16 ], [ %49, %_ZN17AllocateArrayNode22Ideal_array_allocationEP4Node.exit ]
  ret ptr %.0
}